target datalayout = "e-m:e-p270:32:32-p271:32:32-p272:64:64-i64:64-i128:128-f80:128-n8:16:32:64-S128"
target triple = "x86_64-pc-linux-gnu"

%struct.mbedtls_asn1_buf = type { i32, i64, ptr }
%struct.mbedtls_asn1_named_data = type { %struct.mbedtls_asn1_buf, %struct.mbedtls_asn1_buf, ptr, i8 }

; Function Attrs: nounwind uwtable
define internal i32 @x509_write_extension(ptr noundef %0, ptr noundef %1, ptr noundef %2) #0 {
  %4 = alloca i32, align 4
  %5 = alloca ptr, align 8
  %6 = alloca ptr, align 8
  %7 = alloca ptr, align 8
  %8 = alloca i32, align 4
  %9 = alloca i64, align 8
  %10 = alloca i32, align 4
  store ptr %0, ptr %5, align 8, !tbaa !41
  store ptr %1, ptr %6, align 8, !tbaa !9
  store ptr %2, ptr %7, align 8, !tbaa !23
  call void @llvm.lifetime.start.p0(i64 4, ptr %8) #7
  store i32 -110, ptr %8, align 4, !tbaa !11
  call void @llvm.lifetime.start.p0(i64 8, ptr %9) #7
  store i64 0, ptr %9, align 8, !tbaa !14
  br label %11

11:                                               ; preds = %3
  %12 = load ptr, ptr %5, align 8, !tbaa !41
  %13 = load ptr, ptr %6, align 8, !tbaa !9
  %14 = load ptr, ptr %7, align 8, !tbaa !23
  %15 = getelementptr inbounds nuw %struct.mbedtls_asn1_named_data, ptr %14, i32 0, i32 1
  %16 = getelementptr inbounds nuw %struct.mbedtls_asn1_buf, ptr %15, i32 0, i32 2
  %17 = load ptr, ptr %16, align 8, !tbaa !40
  %18 = getelementptr inbounds i8, ptr %17, i64 1
  %19 = load ptr, ptr %7, align 8, !tbaa !23
  %20 = getelementptr inbounds nuw %struct.mbedtls_asn1_named_data, ptr %19, i32 0, i32 1
  %21 = getelementptr inbounds nuw %struct.mbedtls_asn1_buf, ptr %20, i32 0, i32 1
  %22 = load i64, ptr %21, align 8, !tbaa !47
  %23 = sub i64 %22, 1
  %24 = call i32 @mbedtls_asn1_write_raw_buffer(ptr noundef %12, ptr noundef %13, ptr noundef %18, i64 noundef %23)
  store i32 %24, ptr %8, align 4, !tbaa !11
  %25 = icmp slt i32 %24, 0
  br i1 %25, label %26, label %28

26:                                               ; preds = %11
  %27 = load i32, ptr %8, align 4, !tbaa !11
  store i32 %27, ptr %4, align 4
  store i32 1, ptr %10, align 4
  br label %186

28:                                               ; preds = %11
  %29 = load i32, ptr %8, align 4, !tbaa !11
  %30 = sext i32 %29 to i64
  %31 = load i64, ptr %9, align 8, !tbaa !14
  %32 = add i64 %31, %30
  store i64 %32, ptr %9, align 8, !tbaa !14
  br label %33

33:                                               ; preds = %28
  br label %34

34:                                               ; preds = %33
  br label %35

35:                                               ; preds = %34
  br label %36

36:                                               ; preds = %35
  %37 = load ptr, ptr %5, align 8, !tbaa !41
  %38 = load ptr, ptr %6, align 8, !tbaa !9
  %39 = load ptr, ptr %7, align 8, !tbaa !23
  %40 = getelementptr inbounds nuw %struct.mbedtls_asn1_named_data, ptr %39, i32 0, i32 1
  %41 = getelementptr inbounds nuw %struct.mbedtls_asn1_buf, ptr %40, i32 0, i32 1
  %42 = load i64, ptr %41, align 8, !tbaa !47
  %43 = sub i64 %42, 1
  %44 = call i32 @mbedtls_asn1_write_len(ptr noundef %37, ptr noundef %38, i64 noundef %43)
  store i32 %44, ptr %8, align 4, !tbaa !11
  %45 = icmp slt i32 %44, 0
  br i1 %45, label %46, label %48

46:                                               ; preds = %36
  %47 = load i32, ptr %8, align 4, !tbaa !11
  store i32 %47, ptr %4, align 4
  store i32 1, ptr %10, align 4
  br label %186

48:                                               ; preds = %36
  %49 = load i32, ptr %8, align 4, !tbaa !11
  %50 = sext i32 %49 to i64
  %51 = load i64, ptr %9, align 8, !tbaa !14
  %52 = add i64 %51, %50
  store i64 %52, ptr %9, align 8, !tbaa !14
  br label %53

53:                                               ; preds = %48
  br label %54

54:                                               ; preds = %53
  br label %55

55:                                               ; preds = %54
  br label %56

56:                                               ; preds = %55
  %57 = load ptr, ptr %5, align 8, !tbaa !41
  %58 = load ptr, ptr %6, align 8, !tbaa !9
  %59 = call i32 @mbedtls_asn1_write_tag(ptr noundef %57, ptr noundef %58, i8 noundef zeroext 4)
  store i32 %59, ptr %8, align 4, !tbaa !11
  %60 = icmp slt i32 %59, 0
  br i1 %60, label %61, label %63

61:                                               ; preds = %56
  %62 = load i32, ptr %8, align 4, !tbaa !11
  store i32 %62, ptr %4, align 4
  store i32 1, ptr %10, align 4
  br label %186

63:                                               ; preds = %56
  %64 = load i32, ptr %8, align 4, !tbaa !11
  %65 = sext i32 %64 to i64
  %66 = load i64, ptr %9, align 8, !tbaa !14
  %67 = add i64 %66, %65
  store i64 %67, ptr %9, align 8, !tbaa !14
  br label %68

68:                                               ; preds = %63
  br label %69

69:                                               ; preds = %68
  br label %70

70:                                               ; preds = %69
  %71 = load ptr, ptr %7, align 8, !tbaa !23
  %72 = getelementptr inbounds nuw %struct.mbedtls_asn1_named_data, ptr %71, i32 0, i32 1
  %73 = getelementptr inbounds nuw %struct.mbedtls_asn1_buf, ptr %72, i32 0, i32 2
  %74 = load ptr, ptr %73, align 8, !tbaa !40
  %75 = getelementptr inbounds i8, ptr %74, i64 0
  %76 = load i8, ptr %75, align 1, !tbaa !16
  %77 = zext i8 %76 to i32
  %78 = icmp ne i32 %77, 0
  br i1 %78, label %79, label %95

79:                                               ; preds = %70
  br label %80

80:                                               ; preds = %79
  %81 = load ptr, ptr %5, align 8, !tbaa !41
  %82 = load ptr, ptr %6, align 8, !tbaa !9
  %83 = call i32 @mbedtls_asn1_write_bool(ptr noundef %81, ptr noundef %82, i32 noundef 1)
  store i32 %83, ptr %8, align 4, !tbaa !11
  %84 = icmp slt i32 %83, 0
  br i1 %84, label %85, label %87

85:                                               ; preds = %80
  %86 = load i32, ptr %8, align 4, !tbaa !11
  store i32 %86, ptr %4, align 4
  store i32 1, ptr %10, align 4
  br label %186

87:                                               ; preds = %80
  %88 = load i32, ptr %8, align 4, !tbaa !11
  %89 = sext i32 %88 to i64
  %90 = load i64, ptr %9, align 8, !tbaa !14
  %91 = add i64 %90, %89
  store i64 %91, ptr %9, align 8, !tbaa !14
  br label %92

92:                                               ; preds = %87
  br label %93

93:                                               ; preds = %92
  br label %94

94:                                               ; preds = %93
  br label %95

95:                                               ; preds = %94, %70
  br label %96

96:                                               ; preds = %95
  %97 = load ptr, ptr %5, align 8, !tbaa !41
  %98 = load ptr, ptr %6, align 8, !tbaa !9
  %99 = load ptr, ptr %7, align 8, !tbaa !23
  %100 = getelementptr inbounds nuw %struct.mbedtls_asn1_named_data, ptr %99, i32 0, i32 0
  %101 = getelementptr inbounds nuw %struct.mbedtls_asn1_buf, ptr %100, i32 0, i32 2
  %102 = load ptr, ptr %101, align 8, !tbaa !45
  %103 = load ptr, ptr %7, align 8, !tbaa !23
  %104 = getelementptr inbounds nuw %struct.mbedtls_asn1_named_data, ptr %103, i32 0, i32 0
  %105 = getelementptr inbounds nuw %struct.mbedtls_asn1_buf, ptr %104, i32 0, i32 1
  %106 = load i64, ptr %105, align 8, !tbaa !46
  %107 = call i32 @mbedtls_asn1_write_raw_buffer(ptr noundef %97, ptr noundef %98, ptr noundef %102, i64 noundef %106)
  store i32 %107, ptr %8, align 4, !tbaa !11
  %108 = icmp slt i32 %107, 0
  br i1 %108, label %109, label %111

109:                                              ; preds = %96
  %110 = load i32, ptr %8, align 4, !tbaa !11
  store i32 %110, ptr %4, align 4
  store i32 1, ptr %10, align 4
  br label %186

111:                                              ; preds = %96
  %112 = load i32, ptr %8, align 4, !tbaa !11
  %113 = sext i32 %112 to i64
  %114 = load i64, ptr %9, align 8, !tbaa !14
  %115 = add i64 %114, %113
  store i64 %115, ptr %9, align 8, !tbaa !14
  br label %116

116:                                              ; preds = %111
  br label %117

117:                                              ; preds = %116
  br label %118

118:                                              ; preds = %117
  br label %119

119:                                              ; preds = %118
  %120 = load ptr, ptr %5, align 8, !tbaa !41
  %121 = load ptr, ptr %6, align 8, !tbaa !9
  %122 = load ptr, ptr %7, align 8, !tbaa !23
  %123 = getelementptr inbounds nuw %struct.mbedtls_asn1_named_data, ptr %122, i32 0, i32 0
  %124 = getelementptr inbounds nuw %struct.mbedtls_asn1_buf, ptr %123, i32 0, i32 1
  %125 = load i64, ptr %124, align 8, !tbaa !46
  %126 = call i32 @mbedtls_asn1_write_len(ptr noundef %120, ptr noundef %121, i64 noundef %125)
  store i32 %126, ptr %8, align 4, !tbaa !11
  %127 = icmp slt i32 %126, 0
  br i1 %127, label %128, label %130

128:                                              ; preds = %119
  %129 = load i32, ptr %8, align 4, !tbaa !11
  store i32 %129, ptr %4, align 4
  store i32 1, ptr %10, align 4
  br label %186

130:                                              ; preds = %119
  %131 = load i32, ptr %8, align 4, !tbaa !11
  %132 = sext i32 %131 to i64
  %133 = load i64, ptr %9, align 8, !tbaa !14
  %134 = add i64 %133, %132
  store i64 %134, ptr %9, align 8, !tbaa !14
  br label %135

135:                                              ; preds = %130
  br label %136

136:                                              ; preds = %135
  br label %137

137:                                              ; preds = %136
  br label %138

138:                                              ; preds = %137
  %139 = load ptr, ptr %5, align 8, !tbaa !41
  %140 = load ptr, ptr %6, align 8, !tbaa !9
  %141 = call i32 @mbedtls_asn1_write_tag(ptr noundef %139, ptr noundef %140, i8 noundef zeroext 6)
  store i32 %141, ptr %8, align 4, !tbaa !11
  %142 = icmp slt i32 %141, 0
  br i1 %142, label %143, label %145

143:                                              ; preds = %138
  %144 = load i32, ptr %8, align 4, !tbaa !11
  store i32 %144, ptr %4, align 4
  store i32 1, ptr %10, align 4
  br label %186

145:                                              ; preds = %138
  %146 = load i32, ptr %8, align 4, !tbaa !11
  %147 = sext i32 %146 to i64
  %148 = load i64, ptr %9, align 8, !tbaa !14
  %149 = add i64 %148, %147
  store i64 %149, ptr %9, align 8, !tbaa !14
  br label %150

150:                                              ; preds = %145
  br label %151

151:                                              ; preds = %150
  br label %152

152:                                              ; preds = %151
  br label %153

153:                                              ; preds = %152
  %154 = load ptr, ptr %5, align 8, !tbaa !41
  %155 = load ptr, ptr %6, align 8, !tbaa !9
  %156 = load i64, ptr %9, align 8, !tbaa !14
  %157 = call i32 @mbedtls_asn1_write_len(ptr noundef %154, ptr noundef %155, i64 noundef %156)
  store i32 %157, ptr %8, align 4, !tbaa !11
  %158 = icmp slt i32 %157, 0
  br i1 %158, label %159, label %161

159:                                              ; preds = %153
  %160 = load i32, ptr %8, align 4, !tbaa !11
  store i32 %160, ptr %4, align 4
  store i32 1, ptr %10, align 4
  br label %186

161:                                              ; preds = %153
  %162 = load i32, ptr %8, align 4, !tbaa !11
  %163 = sext i32 %162 to i64
  %164 = load i64, ptr %9, align 8, !tbaa !14
  %165 = add i64 %164, %163
  store i64 %165, ptr %9, align 8, !tbaa !14
  br label %166

166:                                              ; preds = %161
  br label %167

167:                                              ; preds = %166
  br label %168

168:                                              ; preds = %167
  br label %169

169:                                              ; preds = %168
  %170 = load ptr, ptr %5, align 8, !tbaa !41
  %171 = load ptr, ptr %6, align 8, !tbaa !9
  %172 = call i32 @mbedtls_asn1_write_tag(ptr noundef %170, ptr noundef %171, i8 noundef zeroext 48)
  store i32 %172, ptr %8, align 4, !tbaa !11
  %173 = icmp slt i32 %172, 0
  br i1 %173, label %174, label %176

174:                                              ; preds = %169
  %175 = load i32, ptr %8, align 4, !tbaa !11
  store i32 %175, ptr %4, align 4
  store i32 1, ptr %10, align 4
  br label %186

176:                                              ; preds = %169
  %177 = load i32, ptr %8, align 4, !tbaa !11
  %178 = sext i32 %177 to i64
  %179 = load i64, ptr %9, align 8, !tbaa !14
  %180 = add i64 %179, %178
  store i64 %180, ptr %9, align 8, !tbaa !14
  br label %181

181:                                              ; preds = %176
  br label %182

182:                                              ; preds = %181
  br label %183

183:                                              ; preds = %182
  %184 = load i64, ptr %9, align 8, !tbaa !14
  %185 = trunc i64 %184 to i32
  store i32 %185, ptr %4, align 4
  store i32 1, ptr %10, align 4
  br label %186

186:                                              ; preds = %183, %174, %159, %143, %128, %109, %85, %61, %46, %26
  call void @llvm.lifetime.end.p0(i64 8, ptr %9) #7
  call void @llvm.lifetime.end.p0(i64 4, ptr %8) #7
  %187 = load i32, ptr %4, align 4
  ret i32 %187
}

; Function Attrs: nounwind uwtable
define hidden i32 @mbedtls_x509_write_extensions(ptr noundef %0, ptr noundef %1, ptr noundef %2) #0 {
  %4 = alloca i32, align 4
  %5 = alloca ptr, align 8
  %6 = alloca ptr, align 8
  %7 = alloca ptr, align 8
  %8 = alloca i32, align 4
  %9 = alloca i64, align 8
  %10 = alloca ptr, align 8
  %11 = alloca i32, align 4
  store ptr %0, ptr %5, align 8, !tbaa !41
  store ptr %1, ptr %6, align 8, !tbaa !9
  store ptr %2, ptr %7, align 8, !tbaa !23
  call void @llvm.lifetime.start.p0(i64 4, ptr %8) #7
  store i32 -110, ptr %8, align 4, !tbaa !11
  call void @llvm.lifetime.start.p0(i64 8, ptr %9) #7
  store i64 0, ptr %9, align 8, !tbaa !14
  call void @llvm.lifetime.start.p0(i64 8, ptr %10) #7
  %12 = load ptr, ptr %7, align 8, !tbaa !23
  store ptr %12, ptr %10, align 8, !tbaa !23
  br label %13

13:                                               ; preds = %32, %3
  %14 = load ptr, ptr %10, align 8, !tbaa !23
  %15 = icmp ne ptr %14, null
  br i1 %15, label %16, label %36

16:                                               ; preds = %13
  br label %17

17:                                               ; preds = %16
  %18 = load ptr, ptr %5, align 8, !tbaa !41
  %19 = load ptr, ptr %6, align 8, !tbaa !9
  %20 = load ptr, ptr %10, align 8, !tbaa !23
  %21 = call i32 @x509_write_extension(ptr noundef %18, ptr noundef %19, ptr noundef %20)
  store i32 %21, ptr %8, align 4, !tbaa !11
  %22 = icmp slt i32 %21, 0
  br i1 %22, label %23, label %25

23:                                               ; preds = %17
  %24 = load i32, ptr %8, align 4, !tbaa !11
  store i32 %24, ptr %4, align 4
  store i32 1, ptr %11, align 4
  br label %39

25:                                               ; preds = %17
  %26 = load i32, ptr %8, align 4, !tbaa !11
  %27 = sext i32 %26 to i64
  %28 = load i64, ptr %9, align 8, !tbaa !14
  %29 = add i64 %28, %27
  store i64 %29, ptr %9, align 8, !tbaa !14
  br label %30

30:                                               ; preds = %25
  br label %31

31:                                               ; preds = %30
  br label %32

32:                                               ; preds = %31
  %33 = load ptr, ptr %10, align 8, !tbaa !23
  %34 = getelementptr inbounds nuw %struct.mbedtls_asn1_named_data, ptr %33, i32 0, i32 2
  %35 = load ptr, ptr %34, align 8, !tbaa !43
  store ptr %35, ptr %10, align 8, !tbaa !23
  br label %13, !llvm.loop !48

36:                                               ; preds = %13
  %37 = load i64, ptr %9, align 8, !tbaa !14
  %38 = trunc i64 %37 to i32
  store i32 %38, ptr %4, align 4
  store i32 1, ptr %11, align 4
  br label %39

39:                                               ; preds = %36, %23
  call void @llvm.lifetime.end.p0(i64 8, ptr %10) #7
  call void @llvm.lifetime.end.p0(i64 8, ptr %9) #7
  call void @llvm.lifetime.end.p0(i64 4, ptr %8) #7
  %40 = load i32, ptr %4, align 4
  ret i32 %40
}