; Function Attrs: nounwind uwtable
define hidden i32 @mbedtls_x509_write_extensions(ptr noundef %0, ptr noundef %1, ptr noundef readonly %2) local_unnamed_addr #0 {
  %.not14 = icmp eq ptr %2, null
  br i1 %.not14, label %x509_write_extension.exit.thread, label %.lr.ph

.lr.ph:                                           ; preds = %3, %62
  %.016 = phi ptr [ %65, %62 ], [ %2, %3 ]
  %.01015 = phi i32 [ %63, %62 ], [ 0, %3 ]
  %4 = getelementptr inbounds nuw i8, ptr %.016, i64 40
  %5 = load ptr, ptr %4, align 8, !tbaa !30
  %6 = getelementptr inbounds nuw i8, ptr %5, i64 1
  %7 = getelementptr inbounds nuw i8, ptr %.016, i64 32
  %8 = load i64, ptr %7, align 8, !tbaa !33
  %9 = add i64 %8, -1
  %10 = tail call i32 @mbedtls_asn1_write_raw_buffer(ptr noundef %0, ptr noundef %1, ptr noundef nonnull %6, i64 noundef %9) #10
  %11 = icmp slt i32 %10, 0
  br i1 %11, label %x509_write_extension.exit.thread, label %12

12:                                               ; preds = %.lr.ph
  %13 = load i64, ptr %7, align 8, !tbaa !33
  %14 = add i64 %13, -1
  %15 = tail call i32 @mbedtls_asn1_write_len(ptr noundef %0, ptr noundef %1, i64 noundef %14) #10
  %16 = icmp slt i32 %15, 0
  br i1 %16, label %x509_write_extension.exit.thread, label %17

17:                                               ; preds = %12
  %18 = tail call i32 @mbedtls_asn1_write_tag(ptr noundef %0, ptr noundef %1, i8 noundef zeroext 4) #10
  %19 = icmp slt i32 %18, 0
  br i1 %19, label %x509_write_extension.exit.thread, label %20

20:                                               ; preds = %17
  %narrow.i = add nuw i32 %15, %10
  %21 = zext i32 %narrow.i to i64
  %22 = zext nneg i32 %18 to i64
  %23 = add nuw nsw i64 %22, %21
  %24 = load ptr, ptr %4, align 8, !tbaa !30
  %25 = load i8, ptr %24, align 1, !tbaa !7
  %.not.i = icmp eq i8 %25, 0
  br i1 %.not.i, label %32, label %26

26:                                               ; preds = %20
  %27 = tail call i32 @mbedtls_asn1_write_bool(ptr noundef %0, ptr noundef %1, i32 noundef 1) #10
  %28 = icmp slt i32 %27, 0
  br i1 %28, label %x509_write_extension.exit.thread, label %29

29:                                               ; preds = %26
  %30 = zext nneg i32 %27 to i64
  %31 = add nuw nsw i64 %23, %30
  br label %32

32:                                               ; preds = %29, %20
  %.0.i = phi i64 [ %31, %29 ], [ %23, %20 ]
  %33 = getelementptr inbounds nuw i8, ptr %.016, i64 16
  %34 = load ptr, ptr %33, align 8, !tbaa !31
  %35 = getelementptr inbounds nuw i8, ptr %.016, i64 8
  %36 = load i64, ptr %35, align 8, !tbaa !32
  %37 = tail call i32 @mbedtls_asn1_write_raw_buffer(ptr noundef %0, ptr noundef %1, ptr noundef %34, i64 noundef %36) #10
  %38 = icmp slt i32 %37, 0
  br i1 %38, label %x509_write_extension.exit.thread, label %39

39:                                               ; preds = %32
  %40 = load i64, ptr %35, align 8, !tbaa !32
  %41 = tail call i32 @mbedtls_asn1_write_len(ptr noundef %0, ptr noundef %1, i64 noundef %40) #10
  %42 = icmp slt i32 %41, 0
  br i1 %42, label %x509_write_extension.exit.thread, label %43

43:                                               ; preds = %39
  %44 = tail call i32 @mbedtls_asn1_write_tag(ptr noundef %0, ptr noundef %1, i8 noundef zeroext 6) #10
  %45 = icmp slt i32 %44, 0
  br i1 %45, label %x509_write_extension.exit.thread, label %46

46:                                               ; preds = %43
  %47 = zext nneg i32 %37 to i64
  %48 = add nuw nsw i64 %.0.i, %47
  %49 = zext nneg i32 %41 to i64
  %50 = add nuw nsw i64 %48, %49
  %51 = zext nneg i32 %44 to i64
  %52 = add nuw nsw i64 %50, %51
  %53 = tail call i32 @mbedtls_asn1_write_len(ptr noundef %0, ptr noundef %1, i64 noundef %52) #10
  %54 = icmp slt i32 %53, 0
  br i1 %54, label %x509_write_extension.exit.thread, label %55

55:                                               ; preds = %46
  %56 = tail call i32 @mbedtls_asn1_write_tag(ptr noundef %0, ptr noundef %1, i8 noundef zeroext 48) #10
  %57 = icmp slt i32 %56, 0
  br i1 %57, label %x509_write_extension.exit.thread, label %x509_write_extension.exit

x509_write_extension.exit:                        ; preds = %55
  %58 = trunc i64 %52 to i32
  %59 = add i32 %53, %58
  %60 = add i32 %59, %56
  %61 = icmp slt i32 %60, 0
  br i1 %61, label %x509_write_extension.exit.thread, label %62

62:                                               ; preds = %x509_write_extension.exit
  %63 = add i32 %60, %.01015
  %64 = getelementptr inbounds nuw i8, ptr %.016, i64 48
  %65 = load ptr, ptr %64, align 8, !tbaa !34
  %.not = icmp eq ptr %65, null
  br i1 %.not, label %x509_write_extension.exit.thread, label %.lr.ph, !llvm.loop !36

x509_write_extension.exit.thread:                 ; preds = %x509_write_extension.exit, %.lr.ph, %12, %17, %26, %32, %39, %43, %46, %55, %62, %3
  %.011 = phi i32 [ 0, %3 ], [ %63, %62 ], [ %56, %55 ], [ %53, %46 ], [ %44, %43 ], [ %41, %39 ], [ %37, %32 ], [ %27, %26 ], [ %18, %17 ], [ %15, %12 ], [ %10, %.lr.ph ], [ %60, %x509_write_extension.exit ]
  ret i32 %.011
}